; Function Attrs: nounwind uwtable
define dso_local void @selectCommand(ptr noundef %0) local_unnamed_addr #0 {
  %2 = alloca i32, align 4
  call void @llvm.lifetime.start.p0(i64 4, ptr nonnull %2) #20
  %3 = getelementptr inbounds nuw i8, ptr %0, i64 96
  %4 = load ptr, ptr %3, align 8, !tbaa !104
  %5 = getelementptr inbounds nuw i8, ptr %4, i64 8
  %6 = load ptr, ptr %5, align 8, !tbaa !105
  %7 = call i32 @getIntFromObjectOrReply(ptr noundef %0, ptr noundef %6, ptr noundef nonnull %2, ptr noundef null) #20
  %.not = icmp eq i32 %7, 0
  br i1 %.not, label %8, label %24

8:                                                ; preds = %1
  %9 = load i32, ptr getelementptr inbounds nuw (i8, ptr @server, i64 7888), align 8, !tbaa !75
  %10 = icmp ne i32 %9, 0
  %11 = load i32, ptr %2, align 4
  %12 = icmp ne i32 %11, 0
  %or.cond = select i1 %10, i1 %12, i1 false
  br i1 %or.cond, label %13, label %14

13:                                               ; preds = %8
  call void @addReplyError(ptr noundef nonnull %0, ptr noundef nonnull @.str.9) #20
  br label %24

14:                                               ; preds = %8
  %15 = icmp sgt i32 %11, -1
  %16 = load i32, ptr getelementptr inbounds nuw (i8, ptr @server, i64 6376), align 8
  %.not.i = icmp slt i32 %11, %16
  %or.cond.i = select i1 %15, i1 %.not.i, i1 false
  br i1 %or.cond.i, label %18, label %17

17:                                               ; preds = %14
  call void @addReplyError(ptr noundef nonnull %0, ptr noundef nonnull @.str.10) #20
  br label %24

18:                                               ; preds = %14
  %19 = load ptr, ptr getelementptr inbounds nuw (i8, ptr @server, i64 64), align 8, !tbaa !94
  %20 = zext nneg i32 %11 to i64
  %21 = getelementptr inbounds nuw %struct.redisDb, ptr %19, i64 %20
  %22 = getelementptr inbounds nuw i8, ptr %0, i64 32
  store ptr %21, ptr %22, align 8, !tbaa !74
  %23 = load ptr, ptr @shared, align 8, !tbaa !115
  call void @addReply(ptr noundef nonnull %0, ptr noundef %23) #20
  br label %24

24:                                               ; preds = %17, %18, %1, %13
  call void @llvm.lifetime.end.p0(i64 4, ptr nonnull %2) #20
  ret void
}